target datalayout = "e-m:e-p270:32:32-p271:32:32-p272:64:64-i64:64-i128:128-f80:128-n8:16:32:64-S128"
target triple = "x86_64-pc-linux-gnu"

%struct.expert_field = type { i32, i32 }
%struct._packet_info = type { ptr, ptr, i32, i32, %struct.nstime_t, %struct.nstime_t, %struct.nstime_t, i8, ptr, ptr, ptr, ptr, %struct._address, %struct._address, %struct._address, %struct._address, %struct._address, %struct._address, i32, ptr, i8, [3 x i8], %struct.anon, i32, i32, i32, i32, ptr, i8, ptr, ptr, i16, i16, i32, i32, i16, i32, i32, ptr, ptr, ptr, i8, i8, i16, i16, i16, i32, i16, i16, ptr, ptr, ptr, ptr, ptr, i32, i32 }
%struct.nstime_t = type { i64, i32 }
%struct._address = type { i32, i32, ptr, ptr }
%struct.anon = type { i8, [3 x i8] }

@hf_pcomtcp_transid = internal global i32 0, align 4
@hf_pcomtcp_protocol = internal global i32 0, align 4
@hf_pcomtcp_reserved = internal global i32 0, align 4
@hf_pcomtcp_length = internal global i32 0, align 4
@ett_pcomtcp = internal global i32 0, align 4
@ei_pcomtcp_reserved_bad_value = internal global %struct.expert_field zeroinitializer, align 4
@.str.46 = private unnamed_addr constant [8 x i8] c"Isn't 0\00", align 1
@.str.56 = private unnamed_addr constant [9 x i8] c"PCOM/TCP\00", align 1
@proto_pcomtcp = internal global i32 0, align 4
@pcomascii_handle = internal global ptr null, align 8
@pcombinary_handle = internal global ptr null, align 8
@pcomp_protocol_vals = internal constant [3 x { i32, [4 x i8], ptr }] [{ i32, [4 x i8], ptr } { i32 101, [4 x i8] zeroinitializer, ptr @.str.63 }, { i32, [4 x i8], ptr } { i32 102, [4 x i8] zeroinitializer, ptr @.str.64 }, { i32, [4 x i8], ptr } zeroinitializer], align 16
@.str.66 = private unnamed_addr constant [18 x i8] c"Unknown mode (%d)\00", align 1
@global_pcomtcp_tcp_ports = internal global ptr null, align 8
@.str.67 = private unnamed_addr constant [6 x i8] c"Reply\00", align 1
@.str.68 = private unnamed_addr constant [6 x i8] c"Query\00", align 1
@.str.69 = private unnamed_addr constant [9 x i8] c"%s in %s\00", align 1

; Function Attrs: null_pointer_is_valid sspstrong uwtable
define internal i32 @dissect_pcomtcp(ptr noundef %0, ptr noundef %1, ptr noundef %2, ptr noundef %3) #0 {
  %5 = alloca i32, align 4
  %6 = alloca ptr, align 8
  %7 = alloca ptr, align 8
  %8 = alloca ptr, align 8
  %9 = alloca ptr, align 8
  %10 = alloca ptr, align 8
  %11 = alloca ptr, align 8
  %12 = alloca ptr, align 8
  %13 = alloca i32, align 4
  %14 = alloca ptr, align 8
  %15 = alloca i8, align 1
  %16 = alloca ptr, align 8
  %17 = alloca ptr, align 8
  %18 = alloca i32, align 4
  store ptr %0, ptr %6, align 8
  store ptr %1, ptr %7, align 8
  store ptr %2, ptr %8, align 8
  store ptr %3, ptr %9, align 8
  call void @llvm.lifetime.start.p0(i64 8, ptr %10) #3
  call void @llvm.lifetime.start.p0(i64 8, ptr %11) #3
  call void @llvm.lifetime.start.p0(i64 8, ptr %12) #3
  call void @llvm.lifetime.start.p0(i64 4, ptr %13) #3
  store i32 0, ptr %13, align 4
  call void @llvm.lifetime.start.p0(i64 8, ptr %14) #3
  call void @llvm.lifetime.start.p0(i64 1, ptr %15) #3
  call void @llvm.lifetime.start.p0(i64 8, ptr %16) #3
  call void @llvm.lifetime.start.p0(i64 8, ptr %17) #3
  store ptr null, ptr %17, align 8
  %19 = load ptr, ptr %6, align 8
  %20 = call i32 @tvb_reported_length(ptr noundef %19)
  %21 = icmp ult i32 %20, 6
  br i1 %21, label %22, label %23

22:                                               ; preds = %4
  store i32 0, ptr %5, align 4
  store i32 1, ptr %18, align 4
  br label %129

23:                                               ; preds = %4
  %24 = load ptr, ptr %6, align 8
  %25 = call zeroext i8 @tvb_get_uint8(ptr noundef %24, i32 noundef 2)
  store i8 %25, ptr %15, align 1
  %26 = load i8, ptr %15, align 1
  %27 = zext i8 %26 to i32
  %28 = icmp ne i32 %27, 101
  br i1 %28, label %29, label %34

29:                                               ; preds = %23
  %30 = load i8, ptr %15, align 1
  %31 = zext i8 %30 to i32
  %32 = icmp ne i32 %31, 102
  br i1 %32, label %33, label %34

33:                                               ; preds = %29
  store i32 0, ptr %5, align 4
  store i32 1, ptr %18, align 4
  br label %129

34:                                               ; preds = %29, %23
  %35 = load i8, ptr %15, align 1
  %36 = zext i8 %35 to i32
  %37 = call ptr @val_to_str(i32 noundef %36, ptr noundef @pcomp_protocol_vals, ptr noundef @.str.66)
  store ptr %37, ptr %16, align 8
  %38 = load ptr, ptr @global_pcomtcp_tcp_ports, align 8
  %39 = load ptr, ptr %7, align 8
  %40 = getelementptr inbounds nuw %struct._packet_info, ptr %39, i32 0, i32 24
  %41 = load i32, ptr %40, align 4
  %42 = call zeroext i1 @value_is_in_range(ptr noundef %38, i32 noundef %41)
  br i1 %42, label %43, label %44

43:                                               ; preds = %34
  store ptr @.str.67, ptr %14, align 8
  br label %45

44:                                               ; preds = %34
  store ptr @.str.68, ptr %14, align 8
  br label %45

45:                                               ; preds = %44, %43
  %46 = load ptr, ptr %7, align 8
  %47 = getelementptr inbounds nuw %struct._packet_info, ptr %46, i32 0, i32 1
  %48 = load ptr, ptr %47, align 8
  call void @col_set_str(ptr noundef %48, i32 noundef 35, ptr noundef @.str.56)
  %49 = load ptr, ptr %7, align 8
  %50 = getelementptr inbounds nuw %struct._packet_info, ptr %49, i32 0, i32 1
  %51 = load ptr, ptr %50, align 8
  call void @col_clear(ptr noundef %51, i32 noundef 25)
  %52 = load ptr, ptr %7, align 8
  %53 = getelementptr inbounds nuw %struct._packet_info, ptr %52, i32 0, i32 1
  %54 = load ptr, ptr %53, align 8
  %55 = load ptr, ptr %14, align 8
  %56 = load ptr, ptr %16, align 8
  call void (ptr, i32, ptr, ...) @col_add_fstr(ptr noundef %54, i32 noundef 25, ptr noundef @.str.69, ptr noundef %55, ptr noundef %56)
  %57 = load ptr, ptr %8, align 8
  %58 = load i32, ptr @proto_pcomtcp, align 4
  %59 = load ptr, ptr %6, align 8
  %60 = call ptr @proto_tree_add_item(ptr noundef %57, i32 noundef %58, ptr noundef %59, i32 noundef 0, i32 noundef -1, i32 noundef 0)
  store ptr %60, ptr %10, align 8
  %61 = load ptr, ptr %10, align 8
  %62 = load i32, ptr @ett_pcomtcp, align 4
  %63 = call ptr @proto_item_add_subtree(ptr noundef %61, i32 noundef %62)
  store ptr %63, ptr %11, align 8
  %64 = load ptr, ptr %11, align 8
  %65 = load i32, ptr @hf_pcomtcp_transid, align 4
  %66 = load ptr, ptr %6, align 8
  %67 = load i32, ptr %13, align 4
  %68 = call ptr @proto_tree_add_item(ptr noundef %64, i32 noundef %65, ptr noundef %66, i32 noundef %67, i32 noundef 2, i32 noundef -2147483648)
  %69 = load i32, ptr %13, align 4
  %70 = add i32 %69, 2
  store i32 %70, ptr %13, align 4
  %71 = load ptr, ptr %11, align 8
  %72 = load i32, ptr @hf_pcomtcp_protocol, align 4
  %73 = load ptr, ptr %6, align 8
  %74 = load i32, ptr %13, align 4
  %75 = call ptr @proto_tree_add_item(ptr noundef %71, i32 noundef %72, ptr noundef %73, i32 noundef %74, i32 noundef 1, i32 noundef 0)
  %76 = load i32, ptr %13, align 4
  %77 = add i32 %76, 1
  store i32 %77, ptr %13, align 4
  %78 = load ptr, ptr %11, align 8
  %79 = load i32, ptr @hf_pcomtcp_reserved, align 4
  %80 = load ptr, ptr %6, align 8
  %81 = load i32, ptr %13, align 4
  %82 = call ptr @proto_tree_add_item(ptr noundef %78, i32 noundef %79, ptr noundef %80, i32 noundef %81, i32 noundef 1, i32 noundef 0)
  store ptr %82, ptr %17, align 8
  %83 = load ptr, ptr %6, align 8
  %84 = load i32, ptr %13, align 4
  %85 = call zeroext i8 @tvb_get_uint8(ptr noundef %83, i32 noundef %84)
  %86 = zext i8 %85 to i32
  %87 = icmp ne i32 %86, 0
  br i1 %87, label %88, label %92

88:                                               ; preds = %45
  %89 = load ptr, ptr %7, align 8
  %90 = load ptr, ptr %17, align 8
  %91 = call ptr (ptr, ptr, ptr, ptr, ...) @expert_add_info_format(ptr noundef %89, ptr noundef %90, ptr noundef @ei_pcomtcp_reserved_bad_value, ptr noundef @.str.46)
  br label %92

92:                                               ; preds = %88, %45
  %93 = load i32, ptr %13, align 4
  %94 = add i32 %93, 1
  store i32 %94, ptr %13, align 4
  %95 = load ptr, ptr %11, align 8
  %96 = load i32, ptr @hf_pcomtcp_length, align 4
  %97 = load ptr, ptr %6, align 8
  %98 = load i32, ptr %13, align 4
  %99 = call ptr @proto_tree_add_item(ptr noundef %95, i32 noundef %96, ptr noundef %97, i32 noundef %98, i32 noundef 2, i32 noundef -2147483648)
  %100 = load i32, ptr %13, align 4
  %101 = add i32 %100, 2
  store i32 %101, ptr %13, align 4
  %102 = load ptr, ptr %6, align 8
  %103 = load i32, ptr %13, align 4
  %104 = call ptr @tvb_new_subset_remaining(ptr noundef %102, i32 noundef %103)
  store ptr %104, ptr %12, align 8
  %105 = load ptr, ptr %6, align 8
  %106 = load i32, ptr %13, align 4
  %107 = call i32 @tvb_reported_length_remaining(ptr noundef %105, i32 noundef %106)
  %108 = icmp sgt i32 %107, 0
  br i1 %108, label %109, label %126

109:                                              ; preds = %92
  %110 = load i8, ptr %15, align 1
  %111 = zext i8 %110 to i32
  %112 = icmp eq i32 %111, 101
  br i1 %112, label %113, label %119

113:                                              ; preds = %109
  %114 = load ptr, ptr @pcomascii_handle, align 8
  %115 = load ptr, ptr %12, align 8
  %116 = load ptr, ptr %7, align 8
  %117 = load ptr, ptr %8, align 8
  %118 = call i32 @call_dissector_with_data(ptr noundef %114, ptr noundef %115, ptr noundef %116, ptr noundef %117, ptr noundef %15)
  br label %125

119:                                              ; preds = %109
  %120 = load ptr, ptr @pcombinary_handle, align 8
  %121 = load ptr, ptr %12, align 8
  %122 = load ptr, ptr %7, align 8
  %123 = load ptr, ptr %8, align 8
  %124 = call i32 @call_dissector_with_data(ptr noundef %120, ptr noundef %121, ptr noundef %122, ptr noundef %123, ptr noundef %15)
  br label %125

125:                                              ; preds = %119, %113
  br label %126

126:                                              ; preds = %125, %92
  %127 = load ptr, ptr %6, align 8
  %128 = call i32 @tvb_reported_length(ptr noundef %127)
  store i32 %128, ptr %5, align 4
  store i32 1, ptr %18, align 4
  br label %129

129:                                              ; preds = %126, %33, %22
  call void @llvm.lifetime.end.p0(i64 8, ptr %17) #3
  call void @llvm.lifetime.end.p0(i64 8, ptr %16) #3
  call void @llvm.lifetime.end.p0(i64 1, ptr %15) #3
  call void @llvm.lifetime.end.p0(i64 8, ptr %14) #3
  call void @llvm.lifetime.end.p0(i64 4, ptr %13) #3
  call void @llvm.lifetime.end.p0(i64 8, ptr %12) #3
  call void @llvm.lifetime.end.p0(i64 8, ptr %11) #3
  call void @llvm.lifetime.end.p0(i64 8, ptr %10) #3
  %130 = load i32, ptr %5, align 4
  ret i32 %130
}