; Function Attrs: null_pointer_is_valid sspstrong uwtable
define internal i32 @dissect_pcomtcp(ptr noundef %0, ptr noundef %1, ptr noundef %2, ptr readnone captures(none) %3) #0 {
  %5 = alloca i8, align 1
  call void @llvm.lifetime.start.p0(i64 1, ptr nonnull %5) #4
  %6 = tail call i32 @tvb_reported_length(ptr noundef %0)
  %7 = icmp ult i32 %6, 6
  br i1 %7, label %46, label %8

8:                                                ; preds = %4
  %9 = tail call zeroext i8 @tvb_get_uint8(ptr noundef %0, i32 noundef 2)
  store i8 %9, ptr %5, align 1
  %10 = add i8 %9, -103
  %or.cond = icmp ult i8 %10, -2
  br i1 %or.cond, label %46, label %11

11:                                               ; preds = %8
  %12 = zext nneg i8 %9 to i32
  %13 = tail call ptr @val_to_str(i32 noundef %12, ptr noundef nonnull @pcomp_protocol_vals, ptr noundef nonnull @.str.66)
  %14 = load ptr, ptr @global_pcomtcp_tcp_ports, align 8
  %15 = getelementptr inbounds nuw i8, ptr %1, i64 284
  %16 = load i32, ptr %15, align 4
  %17 = tail call zeroext i1 @value_is_in_range(ptr noundef %14, i32 noundef %16)
  %.str.67..str.68 = select i1 %17, ptr @.str.67, ptr @.str.68
  %18 = getelementptr inbounds nuw i8, ptr %1, i64 8
  %19 = load ptr, ptr %18, align 8
  tail call void @col_set_str(ptr noundef %19, i32 noundef 35, ptr noundef nonnull @.str.56)
  %20 = load ptr, ptr %18, align 8
  tail call void @col_clear(ptr noundef %20, i32 noundef 25)
  %21 = load ptr, ptr %18, align 8
  tail call void (ptr, i32, ptr, ...) @col_add_fstr(ptr noundef %21, i32 noundef 25, ptr noundef nonnull @.str.69, ptr noundef nonnull %.str.67..str.68, ptr noundef %13)
  %22 = load i32, ptr @proto_pcomtcp, align 4
  %23 = tail call ptr @proto_tree_add_item(ptr noundef %2, i32 noundef %22, ptr noundef %0, i32 noundef 0, i32 noundef -1, i32 noundef 0)
  %24 = load i32, ptr @ett_pcomtcp, align 4
  %25 = tail call ptr @proto_item_add_subtree(ptr noundef %23, i32 noundef %24)
  %26 = load i32, ptr @hf_pcomtcp_transid, align 4
  %27 = tail call ptr @proto_tree_add_item(ptr noundef %25, i32 noundef %26, ptr noundef %0, i32 noundef 0, i32 noundef 2, i32 noundef -2147483648)
  %28 = load i32, ptr @hf_pcomtcp_protocol, align 4
  %29 = tail call ptr @proto_tree_add_item(ptr noundef %25, i32 noundef %28, ptr noundef %0, i32 noundef 2, i32 noundef 1, i32 noundef 0)
  %30 = load i32, ptr @hf_pcomtcp_reserved, align 4
  %31 = tail call ptr @proto_tree_add_item(ptr noundef %25, i32 noundef %30, ptr noundef %0, i32 noundef 3, i32 noundef 1, i32 noundef 0)
  %32 = tail call zeroext i8 @tvb_get_uint8(ptr noundef %0, i32 noundef 3)
  %.not = icmp eq i8 %32, 0
  br i1 %.not, label %35, label %33

33:                                               ; preds = %11
  %34 = tail call ptr (ptr, ptr, ptr, ptr, ...) @expert_add_info_format(ptr noundef %1, ptr noundef %31, ptr noundef nonnull @ei_pcomtcp_reserved_bad_value, ptr noundef nonnull @.str.46)
  br label %35

35:                                               ; preds = %33, %11
  %36 = load i32, ptr @hf_pcomtcp_length, align 4
  %37 = tail call ptr @proto_tree_add_item(ptr noundef %25, i32 noundef %36, ptr noundef %0, i32 noundef 4, i32 noundef 2, i32 noundef -2147483648)
  %38 = tail call ptr @tvb_new_subset_remaining(ptr noundef %0, i32 noundef 6)
  %39 = tail call i32 @tvb_reported_length_remaining(ptr noundef %0, i32 noundef 6)
  %40 = icmp sgt i32 %39, 0
  br i1 %40, label %.sink.split, label %44

.sink.split:                                      ; preds = %35
  %41 = icmp eq i8 %9, 101
  %pcomascii_handle.val = load ptr, ptr @pcomascii_handle, align 8
  %pcombinary_handle.val = load ptr, ptr @pcombinary_handle, align 8
  %42 = select i1 %41, ptr %pcomascii_handle.val, ptr %pcombinary_handle.val
  %43 = call i32 @call_dissector_with_data(ptr noundef %42, ptr noundef %38, ptr noundef %1, ptr noundef %2, ptr noundef nonnull %5)
  br label %44

44:                                               ; preds = %.sink.split, %35
  %45 = call i32 @tvb_reported_length(ptr noundef %0)
  br label %46

46:                                               ; preds = %8, %4, %44
  %.0 = phi i32 [ %45, %44 ], [ 0, %4 ], [ 0, %8 ]
  call void @llvm.lifetime.end.p0(i64 1, ptr nonnull %5) #4
  ret i32 %.0
}